target datalayout = "e-m:e-p270:32:32-p271:32:32-p272:64:64-i64:64-i128:128-f80:128-n8:16:32:64-S128"
target triple = "x86_64-unknown-linux-gnu"

%class.btVector3 = type { [4 x float] }
%class.btMatrix3x3 = type { [3 x %class.btVector3] }

; Function Attrs: mustprogress nounwind uwtable
define linkonce_odr dso_local void @_ZN9btVector3C2Ev(ptr noundef nonnull align 4 dereferenceable(16) %this) unnamed_addr #1 comdat align 2 {
entry:
  %this.addr = alloca ptr, align 8
  store ptr %this, ptr %this.addr, align 8
  ret void
}

; Function Attrs: mustprogress nounwind uwtable
define linkonce_odr dso_local noundef nonnull align 4 dereferenceable(16) ptr @_ZN11btMatrix3x3ixEi(ptr noundef nonnull align 4 dereferenceable(48) %this, i32 noundef %i) #1 comdat align 2 {
entry:
  %this.addr = alloca ptr, align 8
  %i.addr = alloca i32, align 4
  store ptr %this, ptr %this.addr, align 8
  store i32 %i, ptr %i.addr, align 4
  %this1 = load ptr, ptr %this.addr, align 8
  %m_el = getelementptr inbounds %class.btMatrix3x3, ptr %this1, i32 0, i32 0
  %0 = load i32, ptr %i.addr, align 4
  %idxprom = sext i32 %0 to i64
  %arrayidx = getelementptr inbounds [3 x %class.btVector3], ptr %m_el, i64 0, i64 %idxprom
  ret ptr %arrayidx
}

; Function Attrs: mustprogress nounwind uwtable
define linkonce_odr dso_local void @_ZN9btVector3C2ERKfS1_S1_(ptr noundef nonnull align 4 dereferenceable(16) %this, ptr noundef nonnull align 4 dereferenceable(4) %_x, ptr noundef nonnull align 4 dereferenceable(4) %_y, ptr noundef nonnull align 4 dereferenceable(4) %_z) unnamed_addr #1 comdat align 2 {
entry:
  %this.addr = alloca ptr, align 8
  %_x.addr = alloca ptr, align 8
  %_y.addr = alloca ptr, align 8
  %_z.addr = alloca ptr, align 8
  store ptr %this, ptr %this.addr, align 8
  store ptr %_x, ptr %_x.addr, align 8
  store ptr %_y, ptr %_y.addr, align 8
  store ptr %_z, ptr %_z.addr, align 8
  %this1 = load ptr, ptr %this.addr, align 8
  %0 = load ptr, ptr %_x.addr, align 8
  %1 = load float, ptr %0, align 4
  %m_floats = getelementptr inbounds %class.btVector3, ptr %this1, i32 0, i32 0
  %arrayidx = getelementptr inbounds [4 x float], ptr %m_floats, i64 0, i64 0
  store float %1, ptr %arrayidx, align 4
  %2 = load ptr, ptr %_y.addr, align 8
  %3 = load float, ptr %2, align 4
  %m_floats2 = getelementptr inbounds %class.btVector3, ptr %this1, i32 0, i32 0
  %arrayidx3 = getelementptr inbounds [4 x float], ptr %m_floats2, i64 0, i64 1
  store float %3, ptr %arrayidx3, align 4
  %4 = load ptr, ptr %_z.addr, align 8
  %5 = load float, ptr %4, align 4
  %m_floats4 = getelementptr inbounds %class.btVector3, ptr %this1, i32 0, i32 0
  %arrayidx5 = getelementptr inbounds [4 x float], ptr %m_floats4, i64 0, i64 2
  store float %5, ptr %arrayidx5, align 4
  %m_floats6 = getelementptr inbounds %class.btVector3, ptr %this1, i32 0, i32 0
  %arrayidx7 = getelementptr inbounds [4 x float], ptr %m_floats6, i64 0, i64 3
  store float 0.000000e+00, ptr %arrayidx7, align 4
  ret void
}

; Function Attrs: mustprogress nounwind uwtable
define internal noundef float @_ZL3DotPKfS0_i(ptr noundef %a, ptr noundef %b, i32 noundef %ndof) #1 {
entry:
  %a.addr = alloca ptr, align 8
  %b.addr = alloca ptr, align 8
  %ndof.addr = alloca i32, align 4
  %result = alloca float, align 4
  %i = alloca i32, align 4
  store ptr %a, ptr %a.addr, align 8
  store ptr %b, ptr %b.addr, align 8
  store i32 %ndof, ptr %ndof.addr, align 4
  store float 0.000000e+00, ptr %result, align 4
  store i32 0, ptr %i, align 4
  br label %for.cond

for.cond:                                         ; preds = %for.inc, %entry
  %0 = load i32, ptr %i, align 4
  %1 = load i32, ptr %ndof.addr, align 4
  %cmp = icmp slt i32 %0, %1
  br i1 %cmp, label %for.body, label %for.end

for.body:                                         ; preds = %for.cond
  %2 = load ptr, ptr %a.addr, align 8
  %3 = load i32, ptr %i, align 4
  %idxprom = sext i32 %3 to i64
  %arrayidx = getelementptr inbounds float, ptr %2, i64 %idxprom
  %4 = load float, ptr %arrayidx, align 4
  %5 = load ptr, ptr %b.addr, align 8
  %6 = load i32, ptr %i, align 4
  %idxprom1 = sext i32 %6 to i64
  %arrayidx2 = getelementptr inbounds float, ptr %5, i64 %idxprom1
  %7 = load float, ptr %arrayidx2, align 4
  %8 = load float, ptr %result, align 4
  %9 = call float @llvm.fmuladd.f32(float %4, float %7, float %8)
  store float %9, ptr %result, align 4
  br label %for.inc

for.inc:                                          ; preds = %for.body
  %10 = load i32, ptr %i, align 4
  %inc = add nsw i32 %10, 1
  store i32 %inc, ptr %i, align 4
  br label %for.cond, !llvm.loop !282

for.end:                                          ; preds = %for.cond
  %11 = load float, ptr %result, align 4
  ret float %11
}

; Function Attrs: mustprogress uwtable
define linkonce_odr dso_local void @_ZN11btMatrix3x3C2Ev(ptr noundef nonnull align 4 dereferenceable(48) %this) unnamed_addr #5 comdat align 2 {
entry:
  %this.addr = alloca ptr, align 8
  store ptr %this, ptr %this.addr, align 8
  %this1 = load ptr, ptr %this.addr, align 8
  %m_el = getelementptr inbounds %class.btMatrix3x3, ptr %this1, i32 0, i32 0
  %array.begin = getelementptr inbounds [3 x %class.btVector3], ptr %m_el, i32 0, i32 0
  %arrayctor.end = getelementptr inbounds %class.btVector3, ptr %array.begin, i64 3
  br label %arrayctor.loop

arrayctor.loop:                                   ; preds = %arrayctor.loop, %entry
  %arrayctor.cur = phi ptr [ %array.begin, %entry ], [ %arrayctor.next, %arrayctor.loop ]
  call void @_ZN9btVector3C2Ev(ptr noundef nonnull align 4 dereferenceable(16) %arrayctor.cur)
  %arrayctor.next = getelementptr inbounds %class.btVector3, ptr %arrayctor.cur, i64 1
  %arrayctor.done = icmp eq ptr %arrayctor.next, %arrayctor.end
  br i1 %arrayctor.done, label %arrayctor.cont, label %arrayctor.loop

arrayctor.cont:                                   ; preds = %arrayctor.loop
  ret void
}

; Function Attrs: mustprogress uwtable
define internal void @_ZL12OuterProductPKfS0_S0_S0_S0_S0_i(ptr noalias sret(%class.btMatrix3x3) align 4 %agg.result, ptr noundef %v1, ptr noundef %v2, ptr noundef %v3, ptr noundef %u1, ptr noundef %u2, ptr noundef %u3, i32 noundef %ndof) #5 {
entry:
  %result.ptr = alloca ptr, align 8
  %v1.addr = alloca ptr, align 8
  %v2.addr = alloca ptr, align 8
  %v3.addr = alloca ptr, align 8
  %u1.addr = alloca ptr, align 8
  %u2.addr = alloca ptr, align 8
  %u3.addr = alloca ptr, align 8
  %ndof.addr = alloca i32, align 4
  %a11 = alloca float, align 4
  %a12 = alloca float, align 4
  %a13 = alloca float, align 4
  %a21 = alloca float, align 4
  %a22 = alloca float, align 4
  %a23 = alloca float, align 4
  %a31 = alloca float, align 4
  %a32 = alloca float, align 4
  %a33 = alloca float, align 4
  %ref.tmp = alloca %class.btVector3, align 4
  %ref.tmp10 = alloca %class.btVector3, align 4
  %ref.tmp12 = alloca %class.btVector3, align 4
  store ptr %agg.result, ptr %result.ptr, align 8
  store ptr %v1, ptr %v1.addr, align 8
  store ptr %v2, ptr %v2.addr, align 8
  store ptr %v3, ptr %v3.addr, align 8
  store ptr %u1, ptr %u1.addr, align 8
  store ptr %u2, ptr %u2.addr, align 8
  store ptr %u3, ptr %u3.addr, align 8
  store i32 %ndof, ptr %ndof.addr, align 4
  call void @_ZN11btMatrix3x3C2Ev(ptr noundef nonnull align 4 dereferenceable(48) %agg.result)
  %0 = load ptr, ptr %v1.addr, align 8
  %1 = load ptr, ptr %u1.addr, align 8
  %2 = load i32, ptr %ndof.addr, align 4
  %call = call noundef float @_ZL3DotPKfS0_i(ptr noundef %0, ptr noundef %1, i32 noundef %2)
  store float %call, ptr %a11, align 4
  %3 = load ptr, ptr %v1.addr, align 8
  %4 = load ptr, ptr %u2.addr, align 8
  %5 = load i32, ptr %ndof.addr, align 4
  %call1 = call noundef float @_ZL3DotPKfS0_i(ptr noundef %3, ptr noundef %4, i32 noundef %5)
  store float %call1, ptr %a12, align 4
  %6 = load ptr, ptr %v1.addr, align 8
  %7 = load ptr, ptr %u3.addr, align 8
  %8 = load i32, ptr %ndof.addr, align 4
  %call2 = call noundef float @_ZL3DotPKfS0_i(ptr noundef %6, ptr noundef %7, i32 noundef %8)
  store float %call2, ptr %a13, align 4
  %9 = load ptr, ptr %v2.addr, align 8
  %10 = load ptr, ptr %u1.addr, align 8
  %11 = load i32, ptr %ndof.addr, align 4
  %call3 = call noundef float @_ZL3DotPKfS0_i(ptr noundef %9, ptr noundef %10, i32 noundef %11)
  store float %call3, ptr %a21, align 4
  %12 = load ptr, ptr %v2.addr, align 8
  %13 = load ptr, ptr %u2.addr, align 8
  %14 = load i32, ptr %ndof.addr, align 4
  %call4 = call noundef float @_ZL3DotPKfS0_i(ptr noundef %12, ptr noundef %13, i32 noundef %14)
  store float %call4, ptr %a22, align 4
  %15 = load ptr, ptr %v2.addr, align 8
  %16 = load ptr, ptr %u3.addr, align 8
  %17 = load i32, ptr %ndof.addr, align 4
  %call5 = call noundef float @_ZL3DotPKfS0_i(ptr noundef %15, ptr noundef %16, i32 noundef %17)
  store float %call5, ptr %a23, align 4
  %18 = load ptr, ptr %v3.addr, align 8
  %19 = load ptr, ptr %u1.addr, align 8
  %20 = load i32, ptr %ndof.addr, align 4
  %call6 = call noundef float @_ZL3DotPKfS0_i(ptr noundef %18, ptr noundef %19, i32 noundef %20)
  store float %call6, ptr %a31, align 4
  %21 = load ptr, ptr %v3.addr, align 8
  %22 = load ptr, ptr %u2.addr, align 8
  %23 = load i32, ptr %ndof.addr, align 4
  %call7 = call noundef float @_ZL3DotPKfS0_i(ptr noundef %21, ptr noundef %22, i32 noundef %23)
  store float %call7, ptr %a32, align 4
  %24 = load ptr, ptr %v3.addr, align 8
  %25 = load ptr, ptr %u3.addr, align 8
  %26 = load i32, ptr %ndof.addr, align 4
  %call8 = call noundef float @_ZL3DotPKfS0_i(ptr noundef %24, ptr noundef %25, i32 noundef %26)
  store float %call8, ptr %a33, align 4
  call void @_ZN9btVector3C2ERKfS1_S1_(ptr noundef nonnull align 4 dereferenceable(16) %ref.tmp, ptr noundef nonnull align 4 dereferenceable(4) %a11, ptr noundef nonnull align 4 dereferenceable(4) %a12, ptr noundef nonnull align 4 dereferenceable(4) %a13)
  %call9 = call noundef nonnull align 4 dereferenceable(16) ptr @_ZN11btMatrix3x3ixEi(ptr noundef nonnull align 4 dereferenceable(48) %agg.result, i32 noundef 0)
  call void @llvm.memcpy.p0.p0.i64(ptr align 4 %call9, ptr align 4 %ref.tmp, i64 16, i1 false)
  call void @_ZN9btVector3C2ERKfS1_S1_(ptr noundef nonnull align 4 dereferenceable(16) %ref.tmp10, ptr noundef nonnull align 4 dereferenceable(4) %a21, ptr noundef nonnull align 4 dereferenceable(4) %a22, ptr noundef nonnull align 4 dereferenceable(4) %a23)
  %call11 = call noundef nonnull align 4 dereferenceable(16) ptr @_ZN11btMatrix3x3ixEi(ptr noundef nonnull align 4 dereferenceable(48) %agg.result, i32 noundef 1)
  call void @llvm.memcpy.p0.p0.i64(ptr align 4 %call11, ptr align 4 %ref.tmp10, i64 16, i1 false)
  call void @_ZN9btVector3C2ERKfS1_S1_(ptr noundef nonnull align 4 dereferenceable(16) %ref.tmp12, ptr noundef nonnull align 4 dereferenceable(4) %a31, ptr noundef nonnull align 4 dereferenceable(4) %a32, ptr noundef nonnull align 4 dereferenceable(4) %a33)
  %call13 = call noundef nonnull align 4 dereferenceable(16) ptr @_ZN11btMatrix3x3ixEi(ptr noundef nonnull align 4 dereferenceable(48) %agg.result, i32 noundef 2)
  call void @llvm.memcpy.p0.p0.i64(ptr align 4 %call13, ptr align 4 %ref.tmp12, i64 16, i1 false)
  ret void
}