; Function Attrs: mustprogress nofree norecurse nosync nounwind memory(argmem: readwrite) uwtable
define internal fastcc void @_ZL12OuterProductPKfS0_S0_S0_S0_S0_i(ptr noalias nocapture writeonly align 4 %agg.result, ptr nocapture noundef readonly %v1, ptr nocapture noundef readonly %v2, ptr nocapture noundef readonly %v3, ptr nocapture noundef readonly %u1, ptr nocapture noundef readonly %u2, ptr nocapture noundef readonly %u3, i32 noundef %ndof) unnamed_addr #14 {
entry:
  %cmp5.i = icmp sgt i32 %ndof, 0
  br i1 %cmp5.i, label %for.body.preheader.i, label %_ZL3DotPKfS0_i.exit116

for.body.preheader.i:                             ; preds = %entry
  %wide.trip.count.i = zext nneg i32 %ndof to i64
  br label %for.body.i

for.body.i:                                       ; preds = %for.body.i, %for.body.preheader.i
  %indvars.iv.i = phi i64 [ 0, %for.body.preheader.i ], [ %indvars.iv.next.i, %for.body.i ]
  %result.06.i = phi float [ 0.000000e+00, %for.body.preheader.i ], [ %2, %for.body.i ]
  %arrayidx.i = getelementptr inbounds float, ptr %v1, i64 %indvars.iv.i
  %0 = load float, ptr %arrayidx.i, align 4
  %arrayidx2.i = getelementptr inbounds float, ptr %u1, i64 %indvars.iv.i
  %1 = load float, ptr %arrayidx2.i, align 4
  %2 = tail call float @llvm.fmuladd.f32(float %0, float %1, float %result.06.i)
  %indvars.iv.next.i = add nuw nsw i64 %indvars.iv.i, 1
  %exitcond.not.i = icmp eq i64 %indvars.iv.next.i, %wide.trip.count.i
  br i1 %exitcond.not.i, label %for.body.i25, label %for.body.i, !llvm.loop !99

for.body.i25:                                     ; preds = %for.body.i, %for.body.i25
  %indvars.iv.i26 = phi i64 [ %indvars.iv.next.i30, %for.body.i25 ], [ 0, %for.body.i ]
  %result.06.i27 = phi float [ %5, %for.body.i25 ], [ 0.000000e+00, %for.body.i ]
  %arrayidx.i28 = getelementptr inbounds float, ptr %v1, i64 %indvars.iv.i26
  %3 = load float, ptr %arrayidx.i28, align 4
  %arrayidx2.i29 = getelementptr inbounds float, ptr %u2, i64 %indvars.iv.i26
  %4 = load float, ptr %arrayidx2.i29, align 4
  %5 = tail call float @llvm.fmuladd.f32(float %3, float %4, float %result.06.i27)
  %indvars.iv.next.i30 = add nuw nsw i64 %indvars.iv.i26, 1
  %exitcond.not.i31 = icmp eq i64 %indvars.iv.next.i30, %wide.trip.count.i
  br i1 %exitcond.not.i31, label %for.body.i37, label %for.body.i25, !llvm.loop !99

for.body.i37:                                     ; preds = %for.body.i25, %for.body.i37
  %indvars.iv.i38 = phi i64 [ %indvars.iv.next.i42, %for.body.i37 ], [ 0, %for.body.i25 ]
  %result.06.i39 = phi float [ %8, %for.body.i37 ], [ 0.000000e+00, %for.body.i25 ]
  %arrayidx.i40 = getelementptr inbounds float, ptr %v1, i64 %indvars.iv.i38
  %6 = load float, ptr %arrayidx.i40, align 4
  %arrayidx2.i41 = getelementptr inbounds float, ptr %u3, i64 %indvars.iv.i38
  %7 = load float, ptr %arrayidx2.i41, align 4
  %8 = tail call float @llvm.fmuladd.f32(float %6, float %7, float %result.06.i39)
  %indvars.iv.next.i42 = add nuw nsw i64 %indvars.iv.i38, 1
  %exitcond.not.i43 = icmp eq i64 %indvars.iv.next.i42, %wide.trip.count.i
  br i1 %exitcond.not.i43, label %for.body.i49, label %for.body.i37, !llvm.loop !99

for.body.i49:                                     ; preds = %for.body.i37, %for.body.i49
  %indvars.iv.i50 = phi i64 [ %indvars.iv.next.i54, %for.body.i49 ], [ 0, %for.body.i37 ]
  %result.06.i51 = phi float [ %11, %for.body.i49 ], [ 0.000000e+00, %for.body.i37 ]
  %arrayidx.i52 = getelementptr inbounds float, ptr %v2, i64 %indvars.iv.i50
  %9 = load float, ptr %arrayidx.i52, align 4
  %arrayidx2.i53 = getelementptr inbounds float, ptr %u1, i64 %indvars.iv.i50
  %10 = load float, ptr %arrayidx2.i53, align 4
  %11 = tail call float @llvm.fmuladd.f32(float %9, float %10, float %result.06.i51)
  %indvars.iv.next.i54 = add nuw nsw i64 %indvars.iv.i50, 1
  %exitcond.not.i55 = icmp eq i64 %indvars.iv.next.i54, %wide.trip.count.i
  br i1 %exitcond.not.i55, label %for.body.i61, label %for.body.i49, !llvm.loop !99

for.body.i61:                                     ; preds = %for.body.i49, %for.body.i61
  %indvars.iv.i62 = phi i64 [ %indvars.iv.next.i66, %for.body.i61 ], [ 0, %for.body.i49 ]
  %result.06.i63 = phi float [ %14, %for.body.i61 ], [ 0.000000e+00, %for.body.i49 ]
  %arrayidx.i64 = getelementptr inbounds float, ptr %v2, i64 %indvars.iv.i62
  %12 = load float, ptr %arrayidx.i64, align 4
  %arrayidx2.i65 = getelementptr inbounds float, ptr %u2, i64 %indvars.iv.i62
  %13 = load float, ptr %arrayidx2.i65, align 4
  %14 = tail call float @llvm.fmuladd.f32(float %12, float %13, float %result.06.i63)
  %indvars.iv.next.i66 = add nuw nsw i64 %indvars.iv.i62, 1
  %exitcond.not.i67 = icmp eq i64 %indvars.iv.next.i66, %wide.trip.count.i
  br i1 %exitcond.not.i67, label %for.body.i73, label %for.body.i61, !llvm.loop !99

for.body.i73:                                     ; preds = %for.body.i61, %for.body.i73
  %indvars.iv.i74 = phi i64 [ %indvars.iv.next.i78, %for.body.i73 ], [ 0, %for.body.i61 ]
  %result.06.i75 = phi float [ %17, %for.body.i73 ], [ 0.000000e+00, %for.body.i61 ]
  %arrayidx.i76 = getelementptr inbounds float, ptr %v2, i64 %indvars.iv.i74
  %15 = load float, ptr %arrayidx.i76, align 4
  %arrayidx2.i77 = getelementptr inbounds float, ptr %u3, i64 %indvars.iv.i74
  %16 = load float, ptr %arrayidx2.i77, align 4
  %17 = tail call float @llvm.fmuladd.f32(float %15, float %16, float %result.06.i75)
  %indvars.iv.next.i78 = add nuw nsw i64 %indvars.iv.i74, 1
  %exitcond.not.i79 = icmp eq i64 %indvars.iv.next.i78, %wide.trip.count.i
  br i1 %exitcond.not.i79, label %for.body.i85, label %for.body.i73, !llvm.loop !99

for.body.i85:                                     ; preds = %for.body.i73, %for.body.i85
  %indvars.iv.i86 = phi i64 [ %indvars.iv.next.i90, %for.body.i85 ], [ 0, %for.body.i73 ]
  %result.06.i87 = phi float [ %20, %for.body.i85 ], [ 0.000000e+00, %for.body.i73 ]
  %arrayidx.i88 = getelementptr inbounds float, ptr %v3, i64 %indvars.iv.i86
  %18 = load float, ptr %arrayidx.i88, align 4
  %arrayidx2.i89 = getelementptr inbounds float, ptr %u1, i64 %indvars.iv.i86
  %19 = load float, ptr %arrayidx2.i89, align 4
  %20 = tail call float @llvm.fmuladd.f32(float %18, float %19, float %result.06.i87)
  %indvars.iv.next.i90 = add nuw nsw i64 %indvars.iv.i86, 1
  %exitcond.not.i91 = icmp eq i64 %indvars.iv.next.i90, %wide.trip.count.i
  br i1 %exitcond.not.i91, label %for.body.i97, label %for.body.i85, !llvm.loop !99

for.body.i97:                                     ; preds = %for.body.i85, %for.body.i97
  %indvars.iv.i98 = phi i64 [ %indvars.iv.next.i102, %for.body.i97 ], [ 0, %for.body.i85 ]
  %result.06.i99 = phi float [ %23, %for.body.i97 ], [ 0.000000e+00, %for.body.i85 ]
  %arrayidx.i100 = getelementptr inbounds float, ptr %v3, i64 %indvars.iv.i98
  %21 = load float, ptr %arrayidx.i100, align 4
  %arrayidx2.i101 = getelementptr inbounds float, ptr %u2, i64 %indvars.iv.i98
  %22 = load float, ptr %arrayidx2.i101, align 4
  %23 = tail call float @llvm.fmuladd.f32(float %21, float %22, float %result.06.i99)
  %indvars.iv.next.i102 = add nuw nsw i64 %indvars.iv.i98, 1
  %exitcond.not.i103 = icmp eq i64 %indvars.iv.next.i102, %wide.trip.count.i
  br i1 %exitcond.not.i103, label %for.body.i109, label %for.body.i97, !llvm.loop !99

for.body.i109:                                    ; preds = %for.body.i97, %for.body.i109
  %indvars.iv.i110 = phi i64 [ %indvars.iv.next.i114, %for.body.i109 ], [ 0, %for.body.i97 ]
  %result.06.i111 = phi float [ %26, %for.body.i109 ], [ 0.000000e+00, %for.body.i97 ]
  %arrayidx.i112 = getelementptr inbounds float, ptr %v3, i64 %indvars.iv.i110
  %24 = load float, ptr %arrayidx.i112, align 4
  %arrayidx2.i113 = getelementptr inbounds float, ptr %u3, i64 %indvars.iv.i110
  %25 = load float, ptr %arrayidx2.i113, align 4
  %26 = tail call float @llvm.fmuladd.f32(float %24, float %25, float %result.06.i111)
  %indvars.iv.next.i114 = add nuw nsw i64 %indvars.iv.i110, 1
  %exitcond.not.i115 = icmp eq i64 %indvars.iv.next.i114, %wide.trip.count.i
  br i1 %exitcond.not.i115, label %_ZL3DotPKfS0_i.exit116, label %for.body.i109, !llvm.loop !99

_ZL3DotPKfS0_i.exit116:                           ; preds = %for.body.i109, %entry
  %result.0.lcssa.i94196 = phi float [ 0.000000e+00, %entry ], [ %23, %for.body.i109 ]
  %result.0.lcssa.i70166174195 = phi float [ 0.000000e+00, %entry ], [ %17, %for.body.i109 ]
  %result.0.lcssa.i46144150165175194 = phi float [ 0.000000e+00, %entry ], [ %11, %for.body.i109 ]
  %result.0.lcssa.i22130134143151164176193 = phi float [ 0.000000e+00, %entry ], [ %5, %for.body.i109 ]
  %result.0.lcssa.i126129135142152163177192 = phi float [ 0.000000e+00, %entry ], [ %2, %for.body.i109 ]
  %result.0.lcssa.i34136141153162178191 = phi float [ 0.000000e+00, %entry ], [ %8, %for.body.i109 ]
  %result.0.lcssa.i58154161179190 = phi float [ 0.000000e+00, %entry ], [ %14, %for.body.i109 ]
  %result.0.lcssa.i82180189 = phi float [ 0.000000e+00, %entry ], [ %20, %for.body.i109 ]
  %result.0.lcssa.i106 = phi float [ 0.000000e+00, %entry ], [ %26, %for.body.i109 ]
  store float %result.0.lcssa.i126129135142152163177192, ptr %agg.result, align 4
  %ref.tmp.sroa.2.0.agg.result.sroa_idx = getelementptr inbounds i8, ptr %agg.result, i64 4
  store float %result.0.lcssa.i22130134143151164176193, ptr %ref.tmp.sroa.2.0.agg.result.sroa_idx, align 4
  %ref.tmp.sroa.3.0.agg.result.sroa_idx = getelementptr inbounds i8, ptr %agg.result, i64 8
  store float %result.0.lcssa.i34136141153162178191, ptr %ref.tmp.sroa.3.0.agg.result.sroa_idx, align 4
  %ref.tmp.sroa.4.0.agg.result.sroa_idx = getelementptr inbounds i8, ptr %agg.result, i64 12
  store float 0.000000e+00, ptr %ref.tmp.sroa.4.0.agg.result.sroa_idx, align 4
  %arrayidx.i120 = getelementptr inbounds i8, ptr %agg.result, i64 16
  store float %result.0.lcssa.i46144150165175194, ptr %arrayidx.i120, align 4
  %ref.tmp10.sroa.2.0.arrayidx.i120.sroa_idx = getelementptr inbounds i8, ptr %agg.result, i64 20
  store float %result.0.lcssa.i58154161179190, ptr %ref.tmp10.sroa.2.0.arrayidx.i120.sroa_idx, align 4
  %ref.tmp10.sroa.3.0.arrayidx.i120.sroa_idx = getelementptr inbounds i8, ptr %agg.result, i64 24
  store float %result.0.lcssa.i70166174195, ptr %ref.tmp10.sroa.3.0.arrayidx.i120.sroa_idx, align 4
  %ref.tmp10.sroa.4.0.arrayidx.i120.sroa_idx = getelementptr inbounds i8, ptr %agg.result, i64 28
  store float 0.000000e+00, ptr %ref.tmp10.sroa.4.0.arrayidx.i120.sroa_idx, align 4
  %arrayidx.i124 = getelementptr inbounds i8, ptr %agg.result, i64 32
  store float %result.0.lcssa.i82180189, ptr %arrayidx.i124, align 4
  %ref.tmp12.sroa.2.0.arrayidx.i124.sroa_idx = getelementptr inbounds i8, ptr %agg.result, i64 36
  store float %result.0.lcssa.i94196, ptr %ref.tmp12.sroa.2.0.arrayidx.i124.sroa_idx, align 4
  %ref.tmp12.sroa.3.0.arrayidx.i124.sroa_idx = getelementptr inbounds i8, ptr %agg.result, i64 40
  store float %result.0.lcssa.i106, ptr %ref.tmp12.sroa.3.0.arrayidx.i124.sroa_idx, align 4
  %ref.tmp12.sroa.4.0.arrayidx.i124.sroa_idx = getelementptr inbounds i8, ptr %agg.result, i64 44
  store float 0.000000e+00, ptr %ref.tmp12.sroa.4.0.arrayidx.i124.sroa_idx, align 4
  ret void
}